Certificate:
    Data:
        Version: 3 (0x2)
        Serial Number: 1 (0x1)
        Signature Algorithm: sha256WithRSAEncryption
        Issuer: C=CN, ST=ShanXi, L=XiAn, O=Snowfly, OU=Snowfly, CN=Snowfly/emailAddress=Snowfly@163.com
        Validity
            Not Before: May 23 04:17:45 2022 GMT
            Not After : May 23 04:17:45 2023 GMT
        Subject: C=CN, ST=ShanXi, O=Snowfly, OU=Snowfly, CN=Snowfly/emailAddress=Snowfly@163.com
        Subject Public Key Info:
            Public Key Algorithm: rsaEncryption
                RSA Public-Key: (1024 bit)
                Modulus:
                    00:aa:a9:69:c2:4b:eb:71:52:d3:6d:a7:12:31:28:
                    fb:d8:63:aa:8e:0c:68:cd:49:59:e1:63:17:73:39:
                    4e:90:1c:45:78:a6:d0:14:7b:b3:84:7b:0e:00:00:
                    c7:52:d7:8c:47:0a:ca:91:4a:79:40:7a:68:a7:b6:
                    9a:87:fb:12:65:31:dd:f5:eb:d5:6b:10:9a:6b:f3:
                    72:cc:52:d2:3a:af:9d:d4:23:86:d2:ed:e6:38:a2:
                    29:2a:c7:e4:96:9d:d0:e8:92:60:01:2e:c2:1a:df:
                    ab:fb:44:e7:52:0a:c8:d2:ac:63:62:78:26:7c:87:
                    33:0e:8b:6f:77:19:89:20:11
                Exponent: 65537 (0x10001)
        X509v3 extensions:
            X509v3 Basic Constraints: 
                CA:FALSE
            Netscape Comment: 
                OpenSSL Generated Certificate
            X509v3 Subject Key Identifier: 
                98:C3:26:C5:25:BB:B4:A1:5C:EB:B3:39:FE:AC:B2:07:8F:EE:8E:D7
            X509v3 Authority Key Identifier: 
                keyid:32:F6:ED:1C:7F:87:E4:3E:36:BA:89:4D:A5:3C:87:F4:E4:E5:0A:F2

    Signature Algorithm: sha256WithRSAEncryption
         a9:f5:c0:9f:7e:eb:4c:76:b0:4d:fd:e9:e2:12:4b:26:7c:44:
         f6:ec:58:fa:6d:6e:76:3d:a9:79:96:7e:66:01:24:b0:8b:80:
         24:a3:d8:be:10:c5:9c:b0:bc:de:0a:1b:aa:74:da:bb:2e:aa:
         e4:b3:d5:52:2c:73:c7:2d:22:8b:7b:58:35:7d:4f:00:30:96:
         e2:fe:da:34:70:5c:84:df:fb:73:81:13:11:47:c7:52:6c:1f:
         fa:36:f3:7e:a7:c1:1a:82:d8:49:ed:c5:ca:c5:de:56:30:5c:
         e7:8f:74:fd:84:62:2b:43:4c:a0:83:14:e4:af:fa:8b:af:5c:
         5f:dd
-----BEGIN CERTIFICATE-----
MIIC6TCCAlKgAwIBAgIBATANBgkqhkiG9w0BAQsFADCBgzELMAkGA1UEBhMCQ04x
DzANBgNVBAgMBlNoYW5YaTENMAsGA1UEBwwEWGlBbjEQMA4GA1UECgwHU25vd2Zs
eTEQMA4GA1UECwwHU25vd2ZseTEQMA4GA1UEAwwHU25vd2ZseTEeMBwGCSqGSIb3
DQEJARYPU25vd2ZseUAxNjMuY29tMB4XDTIyMDUyMzA0MTc0NVoXDTIzMDUyMzA0
MTc0NVowdDELMAkGA1UEBhMCQ04xDzANBgNVBAgMBlNoYW5YaTEQMA4GA1UECgwH
U25vd2ZseTEQMA4GA1UECwwHU25vd2ZseTEQMA4GA1UEAwwHU25vd2ZseTEeMBwG
CSqGSIb3DQEJARYPU25vd2ZseUAxNjMuY29tMIGfMA0GCSqGSIb3DQEBAQUAA4GN
ADCBiQKBgQCqqWnCS+txUtNtpxIxKPvYY6qODGjNSVnhYxdzOU6QHEV4ptAUe7OE
ew4AAMdS14xHCsqRSnlAemintpqH+xJlMd3169VrEJpr83LMUtI6r53UI4bS7eY4
oikqx+SWndDokmABLsIa36v7ROdSCsjSrGNieCZ8hzMOi293GYkgEQIDAQABo3sw
eTAJBgNVHRMEAjAAMCwGCWCGSAGG+EIBDQQfFh1PcGVuU1NMIEdlbmVyYXRlZCBD
ZXJ0aWZpY2F0ZTAdBgNVHQ4EFgQUmMMmxSW7tKFc67M5/qyyB4/ujtcwHwYDVR0j
BBgwFoAUMvbtHH+H5D42uolNpTyH9OTlCvIwDQYJKoZIhvcNAQELBQADgYEAqfXA
n37rTHawTf3p4hJLJnxE9uxY+m1udj2peZZ+ZgEksIuAJKPYvhDFnLC83gobqnTa
uy6q5LPVUixzxy0ii3tYNX1PADCW4v7aNHBchN/7c4ETEUfHUmwf+jbzfqfBGoLY
Se3FysXeVjBc5490/YRiK0NMoIMU5K/6i69cX90=
-----END CERTIFICATE-----
