Certificate:
    Data:
        Version: 3 (0x2)
        Serial Number: 2 (0x2)
        Signature Algorithm: sha256WithRSAEncryption
        Issuer: C=CN, ST=ShanXi, L=XiAn, O=Snowfly, OU=Snowfly, CN=ca.snowfly.com/emailAddress=ca@snowfly.com
        Validity
            Not Before: May 23 06:10:32 2022 GMT
            Not After : May 23 06:10:32 2023 GMT
        Subject: C=CN, ST=ShanXi, O=Snowfly, OU=Snowfly, CN=www.snowfly.com/emailAddress=admin@snowfly.com
        Subject Public Key Info:
            Public Key Algorithm: rsaEncryption
                RSA Public-Key: (1024 bit)
                Modulus:
                    00:c2:ac:c3:b8:e9:b9:d3:fa:15:11:48:41:85:07:
                    91:26:bb:4a:69:f4:dc:4c:f8:42:de:28:fa:d8:2e:
                    1a:50:60:93:89:a3:e6:e9:c5:f6:fd:1d:b5:56:0d:
                    d6:25:2d:fe:2b:cb:d4:51:14:d7:71:61:d5:84:f2:
                    4e:09:fe:e3:9c:4b:34:49:06:b2:4c:01:8c:a1:d4:
                    72:34:28:fa:0d:88:b3:88:5d:98:71:de:9c:32:10:
                    c6:0d:25:b4:07:ed:7e:e4:0e:e3:c0:73:9a:35:ef:
                    e7:1d:97:63:6f:6b:6c:9f:40:a7:75:6a:7e:17:2c:
                    ee:78:83:be:23:63:06:20:6b
                Exponent: 65537 (0x10001)
        X509v3 extensions:
            X509v3 Basic Constraints: 
                CA:FALSE
            Netscape Comment: 
                OpenSSL Generated Certificate
            X509v3 Subject Key Identifier: 
                33:6A:05:A6:74:E4:F1:45:99:58:99:05:53:CE:12:3B:B6:EE:4E:AB
            X509v3 Authority Key Identifier: 
                keyid:AA:80:B9:D7:6F:65:B9:3B:CB:84:44:CC:0F:CD:12:CD:AD:DF:72:35

    Signature Algorithm: sha256WithRSAEncryption
         1a:e2:07:bf:65:16:36:fd:d4:37:a9:e0:28:b2:21:8d:54:0b:
         34:2f:00:bb:b8:23:b9:84:ee:6e:6a:cd:73:d5:13:94:74:02:
         12:ab:90:8b:2f:cc:1c:71:39:d6:9d:0f:f2:e1:e0:dd:dd:82:
         8c:c8:79:d7:27:bd:0b:5a:2f:34:5f:a4:07:5f:e1:db:b9:44:
         40:01:8b:ed:87:92:ff:9b:5e:40:c6:72:ad:36:51:02:c1:bb:
         fc:f1:40:cf:b1:36:8d:47:93:74:37:a2:26:74:b2:00:9e:99:
         17:a8:52:49:24:03:f0:06:f9:fc:87:b1:d8:a5:d2:37:c7:65:
         73:13
-----BEGIN CERTIFICATE-----
MIIC+TCCAmKgAwIBAgIBAjANBgkqhkiG9w0BAQsFADCBiTELMAkGA1UEBhMCQ04x
DzANBgNVBAgMBlNoYW5YaTENMAsGA1UEBwwEWGlBbjEQMA4GA1UECgwHU25vd2Zs
eTEQMA4GA1UECwwHU25vd2ZseTEXMBUGA1UEAwwOY2Euc25vd2ZseS5jb20xHTAb
BgkqhkiG9w0BCQEWDmNhQHNub3dmbHkuY29tMB4XDTIyMDUyMzA2MTAzMloXDTIz
MDUyMzA2MTAzMlowfjELMAkGA1UEBhMCQ04xDzANBgNVBAgMBlNoYW5YaTEQMA4G
A1UECgwHU25vd2ZseTEQMA4GA1UECwwHU25vd2ZseTEYMBYGA1UEAwwPd3d3LnNu
b3dmbHkuY29tMSAwHgYJKoZIhvcNAQkBFhFhZG1pbkBzbm93Zmx5LmNvbTCBnzAN
BgkqhkiG9w0BAQEFAAOBjQAwgYkCgYEAwqzDuOm50/oVEUhBhQeRJrtKafTcTPhC
3ij62C4aUGCTiaPm6cX2/R21Vg3WJS3+K8vUURTXcWHVhPJOCf7jnEs0SQayTAGM
odRyNCj6DYiziF2Ycd6cMhDGDSW0B+1+5A7jwHOaNe/nHZdjb2tsn0CndWp+Fyzu
eIO+I2MGIGsCAwEAAaN7MHkwCQYDVR0TBAIwADAsBglghkgBhvhCAQ0EHxYdT3Bl
blNTTCBHZW5lcmF0ZWQgQ2VydGlmaWNhdGUwHQYDVR0OBBYEFDNqBaZ05PFFmViZ
BVPOEju27k6rMB8GA1UdIwQYMBaAFKqAuddvZbk7y4REzA/NEs2t33I1MA0GCSqG
SIb3DQEBCwUAA4GBABriB79lFjb91Dep4CiyIY1UCzQvALu4I7mE7m5qzXPVE5R0
AhKrkIsvzBxxOdadD/Lh4N3dgozIedcnvQtaLzRfpAdf4du5REABi+2Hkv+bXkDG
cq02UQLBu/zxQM+xNo1Hk3Q3oiZ0sgCemReoUkkkA/AG+fyHsdil0jfHZXMT
-----END CERTIFICATE-----
